target datalayout = "e-m:e-p270:32:32-p271:32:32-p272:64:64-i64:64-i128:128-f80:128-n8:16:32:64-S128"
target triple = "x86_64-pc-linux-gnu"

%"class.glslang::TParseVersions" = type { ptr, i8, i32, ptr, i32, i32, %"struct.glslang::SpvVersion", ptr, %"class.glslang::TMap", %"class.glslang::TMap.0", %"class.glslang::TVector", i32, i32, ptr }
%"struct.glslang::SpvVersion" = type <{ i32, i32, i32, i32, i8, [3 x i8] }>
%"class.glslang::TMap" = type { %"class.std::map" }
%"class.std::map" = type { %"class.std::_Rb_tree" }
%"class.std::_Rb_tree" = type { %"struct.std::_Rb_tree<std::__cxx11::basic_string<char, std::char_traits<char>, glslang::pool_allocator<char>>, std::pair<const std::__cxx11::basic_string<char, std::char_traits<char>, glslang::pool_allocator<char>>, glslang::TExtensionBehavior>, std::_Select1st<std::pair<const std::__cxx11::basic_string<char, std::char_traits<char>, glslang::pool_allocator<char>>, glslang::TExtensionBehavior>>, std::less<std::__cxx11::basic_string<char, std::char_traits<char>, glslang::pool_allocator<char>>>, glslang::pool_allocator<std::pair<const std::__cxx11::basic_string<char, std::char_traits<char>, glslang::pool_allocator<char>>, glslang::TExtensionBehavior>>>::_Rb_tree_impl" }
%"struct.std::_Rb_tree<std::__cxx11::basic_string<char, std::char_traits<char>, glslang::pool_allocator<char>>, std::pair<const std::__cxx11::basic_string<char, std::char_traits<char>, glslang::pool_allocator<char>>, glslang::TExtensionBehavior>, std::_Select1st<std::pair<const std::__cxx11::basic_string<char, std::char_traits<char>, glslang::pool_allocator<char>>, glslang::TExtensionBehavior>>, std::less<std::__cxx11::basic_string<char, std::char_traits<char>, glslang::pool_allocator<char>>>, glslang::pool_allocator<std::pair<const std::__cxx11::basic_string<char, std::char_traits<char>, glslang::pool_allocator<char>>, glslang::TExtensionBehavior>>>::_Rb_tree_impl" = type { %"class.glslang::pool_allocator", %"struct.std::_Rb_tree_key_compare", %"struct.std::_Rb_tree_header" }
%"class.glslang::pool_allocator" = type { ptr }
%"struct.std::_Rb_tree_key_compare" = type { %"struct.std::less" }
%"struct.std::less" = type { i8 }
%"struct.std::_Rb_tree_header" = type { %"struct.std::_Rb_tree_node_base", i64 }
%"struct.std::_Rb_tree_node_base" = type { i32, ptr, ptr, ptr }
%"class.glslang::TMap.0" = type { %"class.std::map.1" }
%"class.std::map.1" = type { %"class.std::_Rb_tree.2" }
%"class.std::_Rb_tree.2" = type { %"struct.std::_Rb_tree<std::__cxx11::basic_string<char, std::char_traits<char>, glslang::pool_allocator<char>>, std::pair<const std::__cxx11::basic_string<char, std::char_traits<char>, glslang::pool_allocator<char>>, unsigned int>, std::_Select1st<std::pair<const std::__cxx11::basic_string<char, std::char_traits<char>, glslang::pool_allocator<char>>, unsigned int>>, std::less<std::__cxx11::basic_string<char, std::char_traits<char>, glslang::pool_allocator<char>>>, glslang::pool_allocator<std::pair<const std::__cxx11::basic_string<char, std::char_traits<char>, glslang::pool_allocator<char>>, unsigned int>>>::_Rb_tree_impl" }
%"struct.std::_Rb_tree<std::__cxx11::basic_string<char, std::char_traits<char>, glslang::pool_allocator<char>>, std::pair<const std::__cxx11::basic_string<char, std::char_traits<char>, glslang::pool_allocator<char>>, unsigned int>, std::_Select1st<std::pair<const std::__cxx11::basic_string<char, std::char_traits<char>, glslang::pool_allocator<char>>, unsigned int>>, std::less<std::__cxx11::basic_string<char, std::char_traits<char>, glslang::pool_allocator<char>>>, glslang::pool_allocator<std::pair<const std::__cxx11::basic_string<char, std::char_traits<char>, glslang::pool_allocator<char>>, unsigned int>>>::_Rb_tree_impl" = type { %"class.glslang::pool_allocator.3", %"struct.std::_Rb_tree_key_compare", %"struct.std::_Rb_tree_header" }
%"class.glslang::pool_allocator.3" = type { ptr }
%"class.glslang::TVector" = type { %"class.std::vector" }
%"class.std::vector" = type { %"struct.std::_Vector_base" }
%"struct.std::_Vector_base" = type { %"struct.std::_Vector_base<std::__cxx11::basic_string<char, std::char_traits<char>, glslang::pool_allocator<char>>, glslang::pool_allocator<std::__cxx11::basic_string<char, std::char_traits<char>, glslang::pool_allocator<char>>>>::_Vector_impl" }
%"struct.std::_Vector_base<std::__cxx11::basic_string<char, std::char_traits<char>, glslang::pool_allocator<char>>, glslang::pool_allocator<std::__cxx11::basic_string<char, std::char_traits<char>, glslang::pool_allocator<char>>>>::_Vector_impl" = type { %"class.glslang::pool_allocator.4", %"struct.std::_Vector_base<std::__cxx11::basic_string<char, std::char_traits<char>, glslang::pool_allocator<char>>, glslang::pool_allocator<std::__cxx11::basic_string<char, std::char_traits<char>, glslang::pool_allocator<char>>>>::_Vector_impl_data" }
%"class.glslang::pool_allocator.4" = type { ptr }
%"struct.std::_Vector_base<std::__cxx11::basic_string<char, std::char_traits<char>, glslang::pool_allocator<char>>, glslang::pool_allocator<std::__cxx11::basic_string<char, std::char_traits<char>, glslang::pool_allocator<char>>>>::_Vector_impl_data" = type { ptr, ptr, ptr }
%"struct.glslang::TSourceLoc" = type { ptr, i32, i32, i32 }
%struct.__va_list_tag = type { i32, i32, ptr, ptr }
%"class.glslang::TInputScanner" = type <{ ptr, i32, [4 x i8], ptr, ptr, i32, [4 x i8], i64, ptr, i32, i32, %"struct.glslang::TSourceLoc", i8, i8, [6 x i8] }>

; Function Attrs: mustprogress nounwind uwtable
define linkonce_odr void @_ZN7glslang13TInputScanner13setEndOfInputEv(ptr noundef nonnull align 8 dereferenceable(90) %0) #0 comdat align 2 {
  %2 = alloca ptr, align 8
  store ptr %0, ptr %2, align 8
  %3 = load ptr, ptr %2, align 8
  %4 = getelementptr inbounds %"class.glslang::TInputScanner", ptr %3, i32 0, i32 13
  store i8 1, ptr %4, align 1
  %5 = getelementptr inbounds %"class.glslang::TInputScanner", ptr %3, i32 0, i32 1
  %6 = load i32, ptr %5, align 8
  %7 = getelementptr inbounds %"class.glslang::TInputScanner", ptr %3, i32 0, i32 5
  store i32 %6, ptr %7, align 8
  ret void
}

; Function Attrs: mustprogress nounwind uwtable
define void @_ZN7glslang17TParseContextBase5errorERKNS_10TSourceLocEPKcS5_S5_z(ptr noundef nonnull align 8 dereferenceable(1280) %0, ptr noundef nonnull align 8 dereferenceable(24) %1, ptr noundef %2, ptr noundef %3, ptr noundef %4, ...) unnamed_addr #0 align 2 {
  %6 = alloca ptr, align 8
  %7 = alloca ptr, align 8
  %8 = alloca ptr, align 8
  %9 = alloca ptr, align 8
  %10 = alloca ptr, align 8
  %11 = alloca [1 x %struct.__va_list_tag], align 16
  store ptr %0, ptr %6, align 8
  store ptr %1, ptr %7, align 8
  store ptr %2, ptr %8, align 8
  store ptr %3, ptr %9, align 8
  store ptr %4, ptr %10, align 8
  %12 = load ptr, ptr %6, align 8
  %13 = getelementptr inbounds %"class.glslang::TParseVersions", ptr %12, i32 0, i32 11
  %14 = load i32, ptr %13, align 8
  %15 = and i32 %14, 32
  %16 = icmp ne i32 %15, 0
  br i1 %16, label %17, label %18

17:                                               ; preds = %5
  br label %46

18:                                               ; preds = %5
  %19 = getelementptr inbounds %"class.glslang::TParseVersions", ptr %12, i32 0, i32 11
  %20 = load i32, ptr %19, align 8
  %21 = and i32 %20, 32768
  %22 = icmp ne i32 %21, 0
  br i1 %22, label %23, label %28

23:                                               ; preds = %18
  %24 = getelementptr inbounds %"class.glslang::TParseVersions", ptr %12, i32 0, i32 12
  %25 = load i32, ptr %24, align 4
  %26 = icmp sgt i32 %25, 0
  br i1 %26, label %27, label %28

27:                                               ; preds = %23
  br label %46

28:                                               ; preds = %23, %18
  %29 = getelementptr inbounds [1 x %struct.__va_list_tag], ptr %11, i64 0, i64 0
  call void @llvm.va_start.p0(ptr %29)
  %30 = load ptr, ptr %7, align 8
  %31 = load ptr, ptr %8, align 8
  %32 = load ptr, ptr %9, align 8
  %33 = load ptr, ptr %10, align 8
  %34 = getelementptr inbounds [1 x %struct.__va_list_tag], ptr %11, i64 0, i64 0
  %35 = load ptr, ptr %12, align 8
  %36 = getelementptr inbounds ptr, ptr %35, i64 74
  %37 = load ptr, ptr %36, align 8
  call void %37(ptr noundef nonnull align 8 dereferenceable(1280) %12, ptr noundef nonnull align 8 dereferenceable(24) %30, ptr noundef %31, ptr noundef %32, ptr noundef %33, i32 noundef 2, ptr noundef %34)
  %38 = getelementptr inbounds [1 x %struct.__va_list_tag], ptr %11, i64 0, i64 0
  call void @llvm.va_end.p0(ptr %38)
  %39 = getelementptr inbounds %"class.glslang::TParseVersions", ptr %12, i32 0, i32 11
  %40 = load i32, ptr %39, align 8
  %41 = and i32 %40, 128
  %42 = icmp eq i32 %41, 0
  br i1 %42, label %43, label %46

43:                                               ; preds = %28
  %44 = getelementptr inbounds %"class.glslang::TParseVersions", ptr %12, i32 0, i32 13
  %45 = load ptr, ptr %44, align 8
  call void @_ZN7glslang13TInputScanner13setEndOfInputEv(ptr noundef nonnull align 8 dereferenceable(90) %45)
  br label %46

46:                                               ; preds = %43, %28, %27, %17
  ret void
}