; Function Attrs: mustprogress nounwind uwtable
define void @_ZN7glslang17TParseContextBase5errorERKNS_10TSourceLocEPKcS5_S5_z(ptr noundef nonnull align 8 dereferenceable(1280) %0, ptr noundef nonnull align 8 dereferenceable(24) %1, ptr noundef %2, ptr noundef %3, ptr noundef %4, ...) unnamed_addr #0 align 2 {
  %6 = alloca [1 x %struct.__va_list_tag], align 16
  %7 = getelementptr inbounds nuw i8, ptr %0, i64 208
  %8 = load i32, ptr %7, align 8
  %9 = and i32 %8, 32
  %.not = icmp eq i32 %9, 0
  br i1 %.not, label %10, label %29

10:                                               ; preds = %5
  %11 = and i32 %8, 32768
  %.not5 = icmp ne i32 %11, 0
  %12 = getelementptr inbounds nuw i8, ptr %0, i64 212
  %13 = load i32, ptr %12, align 4
  %14 = icmp sgt i32 %13, 0
  %or.cond = select i1 %.not5, i1 %14, i1 false
  br i1 %or.cond, label %29, label %15

15:                                               ; preds = %10
  call void @llvm.va_start.p0(ptr nonnull %6)
  %16 = load ptr, ptr %0, align 8
  %17 = getelementptr inbounds nuw i8, ptr %16, i64 592
  %18 = load ptr, ptr %17, align 8
  call void %18(ptr noundef nonnull align 8 dereferenceable(1280) %0, ptr noundef nonnull align 8 dereferenceable(24) %1, ptr noundef %2, ptr noundef %3, ptr noundef %4, i32 noundef 2, ptr noundef nonnull %6) #16
  call void @llvm.va_end.p0(ptr nonnull %6)
  %19 = load i32, ptr %7, align 8
  %20 = and i32 %19, 128
  %21 = icmp eq i32 %20, 0
  br i1 %21, label %22, label %29

22:                                               ; preds = %15
  %23 = getelementptr inbounds nuw i8, ptr %0, i64 216
  %24 = load ptr, ptr %23, align 8
  %25 = getelementptr inbounds nuw i8, ptr %24, i64 89
  store i8 1, ptr %25, align 1
  %26 = getelementptr inbounds nuw i8, ptr %24, i64 8
  %27 = load i32, ptr %26, align 8
  %28 = getelementptr inbounds nuw i8, ptr %24, i64 32
  store i32 %27, ptr %28, align 8
  br label %29

29:                                               ; preds = %10, %5, %22, %15
  ret void
}